target datalayout = "e-m:e-p270:32:32-p271:32:32-p272:64:64-i64:64-i128:128-f80:128-n8:16:32:64-S128"
target triple = "x86_64-pc-linux-gnu"

; Function Attrs: nounwind uwtable
define internal void @spatial_compensation_8(ptr noalias noundef %0, ptr noalias noundef %1, i64 noundef %2) #1 {
  %4 = alloca ptr, align 8
  %5 = alloca ptr, align 8
  %6 = alloca i64, align 8
  %7 = alloca i32, align 4
  %8 = alloca i32, align 4
  store ptr %0, ptr %4, align 8, !tbaa !14
  store ptr %1, ptr %5, align 8, !tbaa !14
  store i64 %2, ptr %6, align 8, !tbaa !16
  call void @llvm.lifetime.start.p0(i64 4, ptr %7) #6
  call void @llvm.lifetime.start.p0(i64 4, ptr %8) #6
  store i32 0, ptr %8, align 4, !tbaa !18
  br label %9

9:                                                ; preds = %46, %3
  %10 = load i32, ptr %8, align 4, !tbaa !18
  %11 = icmp slt i32 %10, 8
  br i1 %11, label %12, label %49

12:                                               ; preds = %9
  store i32 0, ptr %7, align 4, !tbaa !18
  br label %13

13:                                               ; preds = %39, %12
  %14 = load i32, ptr %7, align 4, !tbaa !18
  %15 = icmp slt i32 %14, 8
  br i1 %15, label %16, label %42

16:                                               ; preds = %13
  %17 = load ptr, ptr %4, align 8, !tbaa !14
  %18 = load i32, ptr %8, align 4, !tbaa !18
  %19 = sub nsw i32 7, %18
  %20 = sext i32 %19 to i64
  %21 = getelementptr inbounds i8, ptr %17, i64 %20
  %22 = load i8, ptr %21, align 1, !tbaa !22
  %23 = zext i8 %22 to i32
  %24 = load ptr, ptr %4, align 8, !tbaa !14
  %25 = load i32, ptr %8, align 4, !tbaa !18
  %26 = sub nsw i32 15, %25
  %27 = sext i32 %26 to i64
  %28 = getelementptr inbounds i8, ptr %24, i64 %27
  %29 = load i8, ptr %28, align 1, !tbaa !22
  %30 = zext i8 %29 to i32
  %31 = add nsw i32 %23, %30
  %32 = add nsw i32 %31, 1
  %33 = ashr i32 %32, 1
  %34 = trunc i32 %33 to i8
  %35 = load ptr, ptr %5, align 8, !tbaa !14
  %36 = load i32, ptr %7, align 4, !tbaa !18
  %37 = sext i32 %36 to i64
  %38 = getelementptr inbounds i8, ptr %35, i64 %37
  store i8 %34, ptr %38, align 1, !tbaa !22
  br label %39

39:                                               ; preds = %16
  %40 = load i32, ptr %7, align 4, !tbaa !18
  %41 = add nsw i32 %40, 1
  store i32 %41, ptr %7, align 4, !tbaa !18
  br label %13, !llvm.loop !50

42:                                               ; preds = %13
  %43 = load i64, ptr %6, align 8, !tbaa !16
  %44 = load ptr, ptr %5, align 8, !tbaa !14
  %45 = getelementptr inbounds i8, ptr %44, i64 %43
  store ptr %45, ptr %5, align 8, !tbaa !14
  br label %46

46:                                               ; preds = %42
  %47 = load i32, ptr %8, align 4, !tbaa !18
  %48 = add nsw i32 %47, 1
  store i32 %48, ptr %8, align 4, !tbaa !18
  br label %9, !llvm.loop !51

49:                                               ; preds = %9
  call void @llvm.lifetime.end.p0(i64 4, ptr %8) #6
  call void @llvm.lifetime.end.p0(i64 4, ptr %7) #6
  ret void
}