; Function Attrs: nofree norecurse nosync nounwind memory(argmem: readwrite) uwtable
define internal void @spatial_compensation_8(ptr noalias noundef readonly captures(none) %0, ptr noalias noundef writeonly captures(none) %1, i64 noundef %2) #1 {
  br label %.preheader

.preheader:                                       ; preds = %3, %.preheader
  %indvars.iv = phi i64 [ 0, %3 ], [ %indvars.iv.next, %.preheader ]
  %.01214 = phi ptr [ %1, %3 ], [ %16, %.preheader ]
  %4 = sub nuw nsw i64 7, %indvars.iv
  %5 = getelementptr inbounds nuw i8, ptr %0, i64 %4
  %6 = load i8, ptr %5, align 1, !tbaa !14
  %7 = zext i8 %6 to i16
  %8 = sub nuw nsw i64 15, %indvars.iv
  %9 = getelementptr inbounds nuw i8, ptr %0, i64 %8
  %10 = load i8, ptr %9, align 1, !tbaa !14
  %11 = zext i8 %10 to i16
  %12 = add nuw nsw i16 %7, 1
  %13 = add nuw nsw i16 %12, %11
  %14 = lshr i16 %13, 1
  %15 = trunc nuw i16 %14 to i8
  tail call void @llvm.memset.p0.i64(ptr noundef nonnull align 1 dereferenceable(8) %.01214, i8 %15, i64 8, i1 false), !tbaa !14
  %16 = getelementptr inbounds i8, ptr %.01214, i64 %2
  %indvars.iv.next = add nuw nsw i64 %indvars.iv, 1
  %exitcond.not = icmp eq i64 %indvars.iv.next, 8
  br i1 %exitcond.not, label %17, label %.preheader, !llvm.loop !41

17:                                               ; preds = %.preheader
  ret void
}